; Function Attrs: mustprogress uwtable
define void @_ZN6casadi4Expm16get_sparsity_outEx(ptr dead_on_unwind noalias writable sret(%"class.casadi::Sparsity") align 8 %0, ptr noundef nonnull readonly align 8 captures(none) dereferenceable(1329) %1, i64 noundef %2) unnamed_addr #3 align 2 {
  %cond = icmp eq i64 %2, 0
  br i1 %cond, label %4, label %7

4:                                                ; preds = %3
  %5 = getelementptr inbounds nuw i8, ptr %1, i64 1320
  %6 = load ptr, ptr %5, align 8, !tbaa !51
  store ptr %6, ptr %0, align 8, !tbaa !51
  tail call void @_ZN6casadi13GenericSharedINS_12SharedObjectENS_20SharedObjectInternalEE8count_upEv(ptr noundef nonnull align 8 dereferenceable(8) %0)
  br label %8

7:                                                ; preds = %3
  tail call void @_ZN6casadi8SparsityC1Ex(ptr noundef nonnull align 8 dereferenceable(8) %0, i64 noundef 0)
  br label %8

8:                                                ; preds = %7, %4
  ret void
}